
Main.elf:     file format elf32-avr

Sections:
Idx Name          Size      VMA       LMA       File off  Algn
  0 .data         00000004  00800100  000002a4  00000338  2**0
                  CONTENTS, ALLOC, LOAD, DATA
  1 .text         000002a4  00000000  00000000  00000094  2**1
                  CONTENTS, ALLOC, LOAD, READONLY, CODE
  2 .bss          000000cc  00800104  00800104  0000033c  2**0
                  ALLOC
  3 .comment      00000030  00000000  00000000  0000033c  2**0
                  CONTENTS, READONLY
  4 .note.gnu.avr.deviceinfo 0000003c  00000000  00000000  0000036c  2**2
                  CONTENTS, READONLY
  5 .debug_aranges 000000e8  00000000  00000000  000003a8  2**0
                  CONTENTS, READONLY, DEBUGGING
  6 .debug_info   00000f33  00000000  00000000  00000490  2**0
                  CONTENTS, READONLY, DEBUGGING
  7 .debug_abbrev 00000a88  00000000  00000000  000013c3  2**0
                  CONTENTS, READONLY, DEBUGGING
  8 .debug_line   0000071e  00000000  00000000  00001e4b  2**0
                  CONTENTS, READONLY, DEBUGGING
  9 .debug_frame  0000022c  00000000  00000000  0000256c  2**2
                  CONTENTS, READONLY, DEBUGGING
 10 .debug_str    000006b5  00000000  00000000  00002798  2**0
                  CONTENTS, READONLY, DEBUGGING
 11 .debug_loc    00000435  00000000  00000000  00002e4d  2**0
                  CONTENTS, READONLY, DEBUGGING
 12 .debug_ranges 000000b8  00000000  00000000  00003282  2**0
                  CONTENTS, READONLY, DEBUGGING

Disassembly of section .text:

00000000 <__vectors>:
   0:	45 c0       	rjmp	.+138    	; 0x8c <__ctors_end>
   2:	00 00       	nop
   4:	08 c1       	rjmp	.+528    	; 0x216 <__vector_1>
   6:	00 00       	nop
   8:	28 c1       	rjmp	.+592    	; 0x25a <__vector_2>
   a:	00 00       	nop
   c:	5c c0       	rjmp	.+184    	; 0xc6 <__bad_interrupt>
   e:	00 00       	nop
  10:	5a c0       	rjmp	.+180    	; 0xc6 <__bad_interrupt>
  12:	00 00       	nop
  14:	58 c0       	rjmp	.+176    	; 0xc6 <__bad_interrupt>
  16:	00 00       	nop
  18:	56 c0       	rjmp	.+172    	; 0xc6 <__bad_interrupt>
  1a:	00 00       	nop
  1c:	54 c0       	rjmp	.+168    	; 0xc6 <__bad_interrupt>
  1e:	00 00       	nop
  20:	52 c0       	rjmp	.+164    	; 0xc6 <__bad_interrupt>
  22:	00 00       	nop
  24:	50 c0       	rjmp	.+160    	; 0xc6 <__bad_interrupt>
  26:	00 00       	nop
  28:	4e c0       	rjmp	.+156    	; 0xc6 <__bad_interrupt>
  2a:	00 00       	nop
  2c:	4c c0       	rjmp	.+152    	; 0xc6 <__bad_interrupt>
  2e:	00 00       	nop
  30:	4a c0       	rjmp	.+148    	; 0xc6 <__bad_interrupt>
  32:	00 00       	nop
  34:	48 c0       	rjmp	.+144    	; 0xc6 <__bad_interrupt>
  36:	00 00       	nop
  38:	46 c0       	rjmp	.+140    	; 0xc6 <__bad_interrupt>
  3a:	00 00       	nop
  3c:	44 c0       	rjmp	.+136    	; 0xc6 <__bad_interrupt>
  3e:	00 00       	nop
  40:	42 c0       	rjmp	.+132    	; 0xc6 <__bad_interrupt>
  42:	00 00       	nop
  44:	40 c0       	rjmp	.+128    	; 0xc6 <__bad_interrupt>
  46:	00 00       	nop
  48:	3e c0       	rjmp	.+124    	; 0xc6 <__bad_interrupt>
  4a:	00 00       	nop
  4c:	3c c0       	rjmp	.+120    	; 0xc6 <__bad_interrupt>
  4e:	00 00       	nop
  50:	3a c0       	rjmp	.+116    	; 0xc6 <__bad_interrupt>
  52:	00 00       	nop
  54:	38 c0       	rjmp	.+112    	; 0xc6 <__bad_interrupt>
  56:	00 00       	nop
  58:	36 c0       	rjmp	.+108    	; 0xc6 <__bad_interrupt>
  5a:	00 00       	nop
  5c:	34 c0       	rjmp	.+104    	; 0xc6 <__bad_interrupt>
  5e:	00 00       	nop
  60:	32 c0       	rjmp	.+100    	; 0xc6 <__bad_interrupt>
  62:	00 00       	nop
  64:	30 c0       	rjmp	.+96     	; 0xc6 <__bad_interrupt>
  66:	00 00       	nop
  68:	2e c0       	rjmp	.+92     	; 0xc6 <__bad_interrupt>
  6a:	00 00       	nop
  6c:	2c c0       	rjmp	.+88     	; 0xc6 <__bad_interrupt>
  6e:	00 00       	nop
  70:	2a c0       	rjmp	.+84     	; 0xc6 <__bad_interrupt>
  72:	00 00       	nop
  74:	28 c0       	rjmp	.+80     	; 0xc6 <__bad_interrupt>
  76:	00 00       	nop
  78:	2b c0       	rjmp	.+86     	; 0xd0 <__vector_30>
  7a:	00 00       	nop
  7c:	81 c0       	rjmp	.+258    	; 0x180 <__vector_31>
  7e:	00 00       	nop
  80:	22 c0       	rjmp	.+68     	; 0xc6 <__bad_interrupt>
  82:	00 00       	nop
  84:	20 c0       	rjmp	.+64     	; 0xc6 <__bad_interrupt>
  86:	00 00       	nop
  88:	1e c0       	rjmp	.+60     	; 0xc6 <__bad_interrupt>
	...

0000008c <__ctors_end>:
  8c:	11 24       	eor	r1, r1
  8e:	1f be       	out	0x3f, r1	; 63
  90:	cf ef       	ldi	r28, 0xFF	; 255
  92:	d0 e1       	ldi	r29, 0x10	; 16
  94:	de bf       	out	0x3e, r29	; 62
  96:	cd bf       	out	0x3d, r28	; 61

00000098 <__do_copy_data>:
  98:	11 e0       	ldi	r17, 0x01	; 1
  9a:	a0 e0       	ldi	r26, 0x00	; 0
  9c:	b1 e0       	ldi	r27, 0x01	; 1
  9e:	e4 ea       	ldi	r30, 0xA4	; 164
  a0:	f2 e0       	ldi	r31, 0x02	; 2
  a2:	00 e0       	ldi	r16, 0x00	; 0
  a4:	0b bf       	out	0x3b, r16	; 59
  a6:	02 c0       	rjmp	.+4      	; 0xac <__do_copy_data+0x14>
  a8:	07 90       	elpm	r0, Z+
  aa:	0d 92       	st	X+, r0
  ac:	a4 30       	cpi	r26, 0x04	; 4
  ae:	b1 07       	cpc	r27, r17
  b0:	d9 f7       	brne	.-10     	; 0xa8 <__do_copy_data+0x10>

000000b2 <__do_clear_bss>:
  b2:	21 e0       	ldi	r18, 0x01	; 1
  b4:	a4 e0       	ldi	r26, 0x04	; 4
  b6:	b1 e0       	ldi	r27, 0x01	; 1
  b8:	01 c0       	rjmp	.+2      	; 0xbc <.do_clear_bss_start>

000000ba <.do_clear_bss_loop>:
  ba:	1d 92       	st	X+, r1

000000bc <.do_clear_bss_start>:
  bc:	a0 3d       	cpi	r26, 0xD0	; 208
  be:	b2 07       	cpc	r27, r18
  c0:	e1 f7       	brne	.-8      	; 0xba <.do_clear_bss_loop>
  c2:	02 d0       	rcall	.+4      	; 0xc8 <main>
  c4:	ed c0       	rjmp	.+474    	; 0x2a0 <_exit>

000000c6 <__bad_interrupt>:
  c6:	9c cf       	rjmp	.-200    	; 0x0 <__vectors>

000000c8 <main>:

int main(void)
{
// Assembly Fundamentals Examples
#ifdef ASSEMBLY_BLINK_BASIC
	main_blink_asm();
  c8:	8d d0       	rcall	.+282    	; 0x1e4 <main_blink_asm>
#ifdef EDUCATIONAL_DEMO
	main_educational_demo();
#endif

	return 0;
}
  ca:	80 e0       	ldi	r24, 0x00	; 0
  cc:	90 e0       	ldi	r25, 0x00	; 0
  ce:	08 95       	ret

000000d0 <__vector_30>:
}

void circ_buffer_clear(volatile CircularBuffer *cb)
{
    cb->head = cb->tail = cb->count = 0;
    cb->overflow = 0;
  d0:	1f 92       	push	r1
  d2:	0f 92       	push	r0
  d4:	0f b6       	in	r0, 0x3f	; 63
  d6:	0f 92       	push	r0
  d8:	11 24       	eor	r1, r1
  da:	0b b6       	in	r0, 0x3b	; 59
  dc:	0f 92       	push	r0
  de:	8f 93       	push	r24
  e0:	9f 93       	push	r25
  e2:	ef 93       	push	r30
  e4:	ff 93       	push	r31
  e6:	80 91 9c 00 	lds	r24, 0x009C	; 0x80009c <__TEXT_REGION_LENGTH__+0x7e009c>
  ea:	8d 30       	cpi	r24, 0x0D	; 13
  ec:	d9 f1       	breq	.+118    	; 0x164 <__vector_30+0x94>
  ee:	8a 30       	cpi	r24, 0x0A	; 10
  f0:	c9 f1       	breq	.+114    	; 0x164 <__vector_30+0x94>
  f2:	88 30       	cpi	r24, 0x08	; 8
  f4:	09 f1       	breq	.+66     	; 0x138 <__vector_30+0x68>
  f6:	8f 37       	cpi	r24, 0x7F	; 127
  f8:	f9 f0       	breq	.+62     	; 0x138 <__vector_30+0x68>
  fa:	90 91 08 01 	lds	r25, 0x0108	; 0x800108 <rx_buffer_index>
  fe:	9f 33       	cpi	r25, 0x3F	; 63
 100:	80 f4       	brcc	.+32     	; 0x122 <__vector_30+0x52>
 102:	e0 91 08 01 	lds	r30, 0x0108	; 0x800108 <rx_buffer_index>
 106:	91 e0       	ldi	r25, 0x01	; 1
 108:	9e 0f       	add	r25, r30
 10a:	90 93 08 01 	sts	0x0108, r25	; 0x800108 <rx_buffer_index>
 10e:	f0 e0       	ldi	r31, 0x00	; 0
 110:	e0 5f       	subi	r30, 0xF0	; 240
 112:	fe 4f       	sbci	r31, 0xFE	; 254
 114:	80 83       	st	Z, r24
 116:	90 91 9b 00 	lds	r25, 0x009B	; 0x80009b <__TEXT_REGION_LENGTH__+0x7e009b>
 11a:	95 ff       	sbrs	r25, 5
 11c:	fc cf       	rjmp	.-8      	; 0x116 <__vector_30+0x46>
 11e:	80 93 9c 00 	sts	0x009C, r24	; 0x80009c <__TEXT_REGION_LENGTH__+0x7e009c>
 122:	ff 91       	pop	r31
 124:	ef 91       	pop	r30
 126:	9f 91       	pop	r25
 128:	8f 91       	pop	r24
 12a:	0f 90       	pop	r0
 12c:	0b be       	out	0x3b, r0	; 59
 12e:	0f 90       	pop	r0
 130:	0f be       	out	0x3f, r0	; 63
 132:	0f 90       	pop	r0
 134:	1f 90       	pop	r1
 136:	18 95       	reti
 138:	80 91 08 01 	lds	r24, 0x0108	; 0x800108 <rx_buffer_index>
 13c:	88 23       	and	r24, r24
 13e:	89 f3       	breq	.-30     	; 0x122 <__vector_30+0x52>
 140:	80 91 08 01 	lds	r24, 0x0108	; 0x800108 <rx_buffer_index>
 144:	81 50       	subi	r24, 0x01	; 1
 146:	80 93 08 01 	sts	0x0108, r24	; 0x800108 <rx_buffer_index>
 14a:	e1 e0       	ldi	r30, 0x01	; 1
 14c:	f1 e0       	ldi	r31, 0x01	; 1
 14e:	90 e2       	ldi	r25, 0x20	; 32
 150:	80 91 9b 00 	lds	r24, 0x009B	; 0x80009b <__TEXT_REGION_LENGTH__+0x7e009b>
 154:	85 ff       	sbrs	r24, 5
 156:	fc cf       	rjmp	.-8      	; 0x150 <__vector_30+0x80>
 158:	90 93 9c 00 	sts	0x009C, r25	; 0x80009c <__TEXT_REGION_LENGTH__+0x7e009c>
 15c:	91 91       	ld	r25, Z+
 15e:	91 11       	cpse	r25, r1
 160:	f7 cf       	rjmp	.-18     	; 0x150 <__vector_30+0x80>
 162:	df cf       	rjmp	.-66     	; 0x122 <__vector_30+0x52>
 164:	80 91 08 01 	lds	r24, 0x0108	; 0x800108 <rx_buffer_index>
 168:	88 23       	and	r24, r24
 16a:	d9 f2       	breq	.-74     	; 0x122 <__vector_30+0x52>
 16c:	e0 91 08 01 	lds	r30, 0x0108	; 0x800108 <rx_buffer_index>
 170:	f0 e0       	ldi	r31, 0x00	; 0
 172:	e0 5f       	subi	r30, 0xF0	; 240
 174:	fe 4f       	sbci	r31, 0xFE	; 254
 176:	10 82       	st	Z, r1
 178:	81 e0       	ldi	r24, 0x01	; 1
 17a:	80 93 07 01 	sts	0x0107, r24	; 0x800107 <rx_command_ready>
 17e:	d1 cf       	rjmp	.-94     	; 0x122 <__vector_30+0x52>

00000180 <__vector_31>:
 180:	1f 92       	push	r1
 182:	0f 92       	push	r0
 184:	0f b6       	in	r0, 0x3f	; 63
 186:	0f 92       	push	r0
 188:	11 24       	eor	r1, r1
 18a:	0b b6       	in	r0, 0x3b	; 59
 18c:	0f 92       	push	r0
 18e:	8f 93       	push	r24
 190:	9f 93       	push	r25
 192:	ef 93       	push	r30
 194:	ff 93       	push	r31
 196:	90 91 06 01 	lds	r25, 0x0106	; 0x800106 <tx_buffer_head>
 19a:	80 91 05 01 	lds	r24, 0x0105	; 0x800105 <tx_buffer_tail>
 19e:	98 17       	cp	r25, r24
 1a0:	c9 f0       	breq	.+50     	; 0x1d4 <__vector_31+0x54>
 1a2:	e0 91 05 01 	lds	r30, 0x0105	; 0x800105 <tx_buffer_tail>
 1a6:	f0 e0       	ldi	r31, 0x00	; 0
 1a8:	e0 5b       	subi	r30, 0xB0	; 176
 1aa:	fe 4f       	sbci	r31, 0xFE	; 254
 1ac:	80 81       	ld	r24, Z
 1ae:	80 93 9c 00 	sts	0x009C, r24	; 0x80009c <__TEXT_REGION_LENGTH__+0x7e009c>
 1b2:	80 91 05 01 	lds	r24, 0x0105	; 0x800105 <tx_buffer_tail>
 1b6:	8f 5f       	subi	r24, 0xFF	; 255
 1b8:	8f 77       	andi	r24, 0x7F	; 127
 1ba:	80 93 05 01 	sts	0x0105, r24	; 0x800105 <tx_buffer_tail>
 1be:	ff 91       	pop	r31
 1c0:	ef 91       	pop	r30
 1c2:	9f 91       	pop	r25
 1c4:	8f 91       	pop	r24
 1c6:	0f 90       	pop	r0
 1c8:	0b be       	out	0x3b, r0	; 59
 1ca:	0f 90       	pop	r0
 1cc:	0f be       	out	0x3f, r0	; 63
 1ce:	0f 90       	pop	r0
 1d0:	1f 90       	pop	r1
 1d2:	18 95       	reti
 1d4:	80 91 9a 00 	lds	r24, 0x009A	; 0x80009a <__TEXT_REGION_LENGTH__+0x7e009a>
 1d8:	8f 7d       	andi	r24, 0xDF	; 223
 1da:	80 93 9a 00 	sts	0x009A, r24	; 0x80009a <__TEXT_REGION_LENGTH__+0x7e009a>
 1de:	10 92 04 01 	sts	0x0104, r1	; 0x800104 <__data_end>
 1e2:	ed cf       	rjmp	.-38     	; 0x1be <__vector_31+0x3e>

000001e4 <main_blink_asm>:
#ifdef ASSEMBLY_BLINK_BASIC
/* address version */
int main_blink_asm(void)
{
    // Set DDRB as output
    asm volatile(
 1e4:	0f ef       	ldi	r16, 0xFF	; 255
 1e6:	07 bb       	out	0x17, r16	; 23
    );

    while (1)
    {
        // Set PORTB = 0xAA
        asm volatile(
 1e8:	0a ea       	ldi	r16, 0xAA	; 170
 1ea:	08 bb       	out	0x18, r16	; 24
	#else
		//round up by default
		__ticks_dc = (uint32_t)(ceil(fabs(__tmp)));
	#endif

	__builtin_avr_delay_cycles(__ticks_dc);
 1ec:	2f ef       	ldi	r18, 0xFF	; 255
 1ee:	87 ea       	ldi	r24, 0xA7	; 167
 1f0:	91 e6       	ldi	r25, 0x61	; 97
 1f2:	21 50       	subi	r18, 0x01	; 1
 1f4:	80 40       	sbci	r24, 0x00	; 0
 1f6:	90 40       	sbci	r25, 0x00	; 0
 1f8:	e1 f7       	brne	.-8      	; 0x1f2 <main_blink_asm+0xe>
 1fa:	00 c0       	rjmp	.+0      	; 0x1fc <main_blink_asm+0x18>
 1fc:	00 00       	nop
        );

        _delay_ms(2000); // 1-second delay

        // Set PORTB = 0x55
        asm volatile(
 1fe:	05 e5       	ldi	r16, 0x55	; 85
 200:	08 bb       	out	0x18, r16	; 24
 202:	2f ef       	ldi	r18, 0xFF	; 255
 204:	83 ed       	ldi	r24, 0xD3	; 211
 206:	90 e3       	ldi	r25, 0x30	; 48
 208:	21 50       	subi	r18, 0x01	; 1
 20a:	80 40       	sbci	r24, 0x00	; 0
 20c:	90 40       	sbci	r25, 0x00	; 0
 20e:	e1 f7       	brne	.-8      	; 0x208 <main_blink_asm+0x24>
 210:	00 c0       	rjmp	.+0      	; 0x212 <main_blink_asm+0x2e>
 212:	00 00       	nop
 214:	e9 cf       	rjmp	.-46     	; 0x1e8 <main_blink_asm+0x4>

00000216 <__vector_1>:
 * TRIGGER: Falling edge on PD0 (configured in Interrupt_init)
 *
 * VECTOR: INT0_vect (highest priority external interrupt)
 */
ISR(INT0_vect)
{
 216:	1f 92       	push	r1
 218:	0f 92       	push	r0
 21a:	0f b6       	in	r0, 0x3f	; 63
 21c:	0f 92       	push	r0
 21e:	11 24       	eor	r1, r1
 220:	8f 93       	push	r24
 222:	9f 93       	push	r25
	/* Update statistics atomically */
	int0_count++;
 224:	80 91 0e 01 	lds	r24, 0x010E	; 0x80010e <int0_count>
 228:	90 91 0f 01 	lds	r25, 0x010F	; 0x80010f <int0_count+0x1>
 22c:	01 96       	adiw	r24, 0x01	; 1
 22e:	90 93 0f 01 	sts	0x010F, r25	; 0x80010f <int0_count+0x1>
 232:	80 93 0e 01 	sts	0x010E, r24	; 0x80010e <int0_count>
	total_interrupts++;
 236:	80 91 0a 01 	lds	r24, 0x010A	; 0x80010a <total_interrupts>
 23a:	90 91 0b 01 	lds	r25, 0x010B	; 0x80010b <total_interrupts+0x1>
 23e:	01 96       	adiw	r24, 0x01	; 1
 240:	90 93 0b 01 	sts	0x010B, r25	; 0x80010b <total_interrupts+0x1>
 244:	80 93 0a 01 	sts	0x010A, r24	; 0x80010a <total_interrupts>
	last_interrupt = 0; // Indicate INT0 was last triggered
 248:	10 92 09 01 	sts	0x0109, r1	; 0x800109 <last_interrupt>
	 * - Minimal processing time
	 * - Statistical data collection
	 * - Optional debugging output
	 * - Proper variable access (volatile globals)
	 */
}
 24c:	9f 91       	pop	r25
 24e:	8f 91       	pop	r24
 250:	0f 90       	pop	r0
 252:	0f be       	out	0x3f, r0	; 63
 254:	0f 90       	pop	r0
 256:	1f 90       	pop	r1
 258:	18 95       	reti

0000025a <__vector_2>:
 * TRIGGER: Falling edge on PD1 (configured in Interrupt_init)
 *
 * VECTOR: INT1_vect (second priority external interrupt)
 */
ISR(INT1_vect)
{
 25a:	1f 92       	push	r1
 25c:	0f 92       	push	r0
 25e:	0f b6       	in	r0, 0x3f	; 63
 260:	0f 92       	push	r0
 262:	11 24       	eor	r1, r1
 264:	8f 93       	push	r24
 266:	9f 93       	push	r25
	/* Update statistics atomically */
	int1_count++;
 268:	80 91 0c 01 	lds	r24, 0x010C	; 0x80010c <int1_count>
 26c:	90 91 0d 01 	lds	r25, 0x010D	; 0x80010d <int1_count+0x1>
 270:	01 96       	adiw	r24, 0x01	; 1
 272:	90 93 0d 01 	sts	0x010D, r25	; 0x80010d <int1_count+0x1>
 276:	80 93 0c 01 	sts	0x010C, r24	; 0x80010c <int1_count>
	total_interrupts++;
 27a:	80 91 0a 01 	lds	r24, 0x010A	; 0x80010a <total_interrupts>
 27e:	90 91 0b 01 	lds	r25, 0x010B	; 0x80010b <total_interrupts+0x1>
 282:	01 96       	adiw	r24, 0x01	; 1
 284:	90 93 0b 01 	sts	0x010B, r25	; 0x80010b <total_interrupts+0x1>
 288:	80 93 0a 01 	sts	0x010A, r24	; 0x80010a <total_interrupts>
	last_interrupt = 1; // Indicate INT1 was last triggered
 28c:	81 e0       	ldi	r24, 0x01	; 1
 28e:	80 93 09 01 	sts	0x0109, r24	; 0x800109 <last_interrupt>
	 * Multiple interrupt sources can be handled similarly:
	 * - Each ISR updates relevant statistics
	 * - Common pattern for event counting
	 * - Enables system monitoring and debugging
	 */
}
 292:	9f 91       	pop	r25
 294:	8f 91       	pop	r24
 296:	0f 90       	pop	r0
 298:	0f be       	out	0x3f, r0	; 63
 29a:	0f 90       	pop	r0
 29c:	1f 90       	pop	r1
 29e:	18 95       	reti

000002a0 <_exit>:
 2a0:	f8 94       	cli

000002a2 <__stop_program>:
 2a2:	ff cf       	rjmp	.-2      	; 0x2a2 <__stop_program>
